target datalayout = "e-m:e-p270:32:32-p271:32:32-p272:64:64-i64:64-i128:128-f80:128-n8:16:32:64-S128"
target triple = "x86_64-pc-linux-gnu"

; Function Attrs: inlinehint nounwind uwtable
define internal void @_out_buffer(i8 noundef signext %0, ptr noundef %1, i64 noundef %2, i64 noundef %3) #3 {
  %5 = alloca i8, align 1
  %6 = alloca ptr, align 8
  %7 = alloca i64, align 8
  %8 = alloca i64, align 8
  store i8 %0, ptr %5, align 1, !tbaa !15
  store ptr %1, ptr %6, align 8, !tbaa !12
  store i64 %2, ptr %7, align 8, !tbaa !8
  store i64 %3, ptr %8, align 8, !tbaa !8
  %9 = load i64, ptr %7, align 8, !tbaa !8
  %10 = load i64, ptr %8, align 8, !tbaa !8
  %11 = icmp ult i64 %9, %10
  br i1 %11, label %12, label %17

12:                                               ; preds = %4
  %13 = load i8, ptr %5, align 1, !tbaa !15
  %14 = load ptr, ptr %6, align 8, !tbaa !12
  %15 = load i64, ptr %7, align 8, !tbaa !8
  %16 = getelementptr inbounds nuw i8, ptr %14, i64 %15
  store i8 %13, ptr %16, align 1, !tbaa !15
  br label %17

17:                                               ; preds = %12, %4
  ret void
}