; Function Attrs: inlinehint mustprogress nofree norecurse nosync nounwind willreturn memory(argmem: write) uwtable
define internal void @_out_buffer(i8 noundef signext %0, ptr noundef writeonly captures(none) %1, i64 noundef %2, i64 noundef %3) #3 {
  %5 = icmp ult i64 %2, %3
  br i1 %5, label %6, label %8

6:                                                ; preds = %4
  %7 = getelementptr inbounds nuw i8, ptr %1, i64 %2
  store i8 %0, ptr %7, align 1, !tbaa !3
  br label %8

8:                                                ; preds = %6, %4
  ret void
}